target datalayout = "e-m:e-p270:32:32-p271:32:32-p272:64:64-i64:64-i128:128-f80:128-n8:16:32:64-S128"
target triple = "x86_64-pc-linux-gnu"

%struct.SHA1_CTX = type { [5 x i32], [2 x i32], [64 x i8] }

@.str = private unnamed_addr constant [17 x i8] c"0123456789abcdef\00", align 1

; Function Attrs: nounwind uwtable
define dso_local void @sha1hex(ptr noundef %0, ptr noundef %1, i64 noundef %2) #0 {
  %4 = alloca ptr, align 8
  %5 = alloca ptr, align 8
  %6 = alloca i64, align 8
  %7 = alloca %struct.SHA1_CTX, align 4
  %8 = alloca [20 x i8], align 16
  %9 = alloca ptr, align 8
  %10 = alloca i32, align 4
  store ptr %0, ptr %4, align 8, !tbaa !16
  store ptr %1, ptr %5, align 8, !tbaa !16
  store i64 %2, ptr %6, align 8, !tbaa !18
  call void @llvm.lifetime.start.p0(i64 92, ptr %7) #14
  call void @llvm.lifetime.start.p0(i64 20, ptr %8) #14
  call void @llvm.lifetime.start.p0(i64 8, ptr %9) #14
  store ptr @.str, ptr %9, align 8, !tbaa !16
  call void @llvm.lifetime.start.p0(i64 4, ptr %10) #14
  call void @SHA1Init(ptr noundef %7)
  %11 = load ptr, ptr %5, align 8, !tbaa !16
  %12 = load i64, ptr %6, align 8, !tbaa !18
  %13 = trunc i64 %12 to i32
  call void @SHA1Update(ptr noundef %7, ptr noundef %11, i32 noundef %13)
  %14 = getelementptr inbounds [20 x i8], ptr %8, i64 0, i64 0
  call void @SHA1Final(ptr noundef %14, ptr noundef %7)
  store i32 0, ptr %10, align 4, !tbaa !19
  br label %15

15:                                               ; preds = %51, %3
  %16 = load i32, ptr %10, align 4, !tbaa !19
  %17 = icmp slt i32 %16, 20
  br i1 %17, label %18, label %54

18:                                               ; preds = %15
  %19 = load ptr, ptr %9, align 8, !tbaa !16
  %20 = load i32, ptr %10, align 4, !tbaa !19
  %21 = sext i32 %20 to i64
  %22 = getelementptr inbounds [20 x i8], ptr %8, i64 0, i64 %21
  %23 = load i8, ptr %22, align 1, !tbaa !21
  %24 = zext i8 %23 to i32
  %25 = and i32 %24, 240
  %26 = ashr i32 %25, 4
  %27 = sext i32 %26 to i64
  %28 = getelementptr inbounds i8, ptr %19, i64 %27
  %29 = load i8, ptr %28, align 1, !tbaa !21
  %30 = load ptr, ptr %4, align 8, !tbaa !16
  %31 = load i32, ptr %10, align 4, !tbaa !19
  %32 = mul nsw i32 %31, 2
  %33 = sext i32 %32 to i64
  %34 = getelementptr inbounds i8, ptr %30, i64 %33
  store i8 %29, ptr %34, align 1, !tbaa !21
  %35 = load ptr, ptr %9, align 8, !tbaa !16
  %36 = load i32, ptr %10, align 4, !tbaa !19
  %37 = sext i32 %36 to i64
  %38 = getelementptr inbounds [20 x i8], ptr %8, i64 0, i64 %37
  %39 = load i8, ptr %38, align 1, !tbaa !21
  %40 = zext i8 %39 to i32
  %41 = and i32 %40, 15
  %42 = sext i32 %41 to i64
  %43 = getelementptr inbounds i8, ptr %35, i64 %42
  %44 = load i8, ptr %43, align 1, !tbaa !21
  %45 = load ptr, ptr %4, align 8, !tbaa !16
  %46 = load i32, ptr %10, align 4, !tbaa !19
  %47 = mul nsw i32 %46, 2
  %48 = add nsw i32 %47, 1
  %49 = sext i32 %48 to i64
  %50 = getelementptr inbounds i8, ptr %45, i64 %49
  store i8 %44, ptr %50, align 1, !tbaa !21
  br label %51

51:                                               ; preds = %18
  %52 = load i32, ptr %10, align 4, !tbaa !19
  %53 = add nsw i32 %52, 1
  store i32 %53, ptr %10, align 4, !tbaa !19
  br label %15, !llvm.loop !22

54:                                               ; preds = %15
  %55 = load ptr, ptr %4, align 8, !tbaa !16
  %56 = getelementptr inbounds i8, ptr %55, i64 40
  store i8 0, ptr %56, align 1, !tbaa !21
  call void @llvm.lifetime.end.p0(i64 4, ptr %10) #14
  call void @llvm.lifetime.end.p0(i64 8, ptr %9) #14
  call void @llvm.lifetime.end.p0(i64 20, ptr %8) #14
  call void @llvm.lifetime.end.p0(i64 92, ptr %7) #14
  ret void
}