; Function Attrs: nounwind uwtable
define dso_local void @sha1hex(ptr noundef writeonly captures(none) %0, ptr noundef %1, i64 noundef %2) local_unnamed_addr #0 {
  %4 = alloca %struct.SHA1_CTX, align 4
  %5 = alloca [20 x i8], align 16
  call void @llvm.lifetime.start.p0(i64 92, ptr nonnull %4) #19
  call void @llvm.lifetime.start.p0(i64 20, ptr nonnull %5) #19
  call void @SHA1Init(ptr noundef nonnull %4) #19
  %6 = trunc i64 %2 to i32
  call void @SHA1Update(ptr noundef nonnull %4, ptr noundef %1, i32 noundef %6) #19
  call void @SHA1Final(ptr noundef nonnull %5, ptr noundef nonnull %4) #19
  br label %7

7:                                                ; preds = %3, %7
  %indvars.iv = phi i64 [ 0, %3 ], [ %indvars.iv.next, %7 ]
  %8 = getelementptr inbounds nuw [20 x i8], ptr %5, i64 0, i64 %indvars.iv
  %9 = load i8, ptr %8, align 1, !tbaa !13
  %10 = lshr i8 %9, 4
  %11 = zext nneg i8 %10 to i64
  %12 = getelementptr inbounds nuw i8, ptr @.str, i64 %11
  %13 = load i8, ptr %12, align 1, !tbaa !13
  %14 = shl nuw nsw i64 %indvars.iv, 1
  %15 = getelementptr inbounds nuw i8, ptr %0, i64 %14
  store i8 %13, ptr %15, align 1, !tbaa !13
  %16 = and i8 %9, 15
  %17 = zext nneg i8 %16 to i64
  %18 = getelementptr inbounds nuw i8, ptr @.str, i64 %17
  %19 = load i8, ptr %18, align 1, !tbaa !13
  %20 = or disjoint i64 %14, 1
  %21 = getelementptr inbounds nuw i8, ptr %0, i64 %20
  store i8 %19, ptr %21, align 1, !tbaa !13
  %indvars.iv.next = add nuw nsw i64 %indvars.iv, 1
  %exitcond.not = icmp eq i64 %indvars.iv.next, 20
  br i1 %exitcond.not, label %22, label %7, !llvm.loop !14

22:                                               ; preds = %7
  %23 = getelementptr inbounds nuw i8, ptr %0, i64 40
  store i8 0, ptr %23, align 1, !tbaa !13
  call void @llvm.lifetime.end.p0(i64 20, ptr nonnull %5) #19
  call void @llvm.lifetime.end.p0(i64 92, ptr nonnull %4) #19
  ret void
}